; Function Attrs: nounwind uwtable
define hidden i32 @BN_nnmod(ptr noundef %0, ptr noundef %1, ptr noundef %2, ptr noundef %3) local_unnamed_addr #0 {
  %5 = tail call i32 @BN_div(ptr noundef null, ptr noundef %0, ptr noundef %1, ptr noundef %2, ptr noundef %3)
  %.not = icmp eq i32 %5, 0
  br i1 %.not, label %14, label %6

6:                                                ; preds = %4
  %7 = getelementptr inbounds nuw i8, ptr %0, i64 16
  %8 = load i32, ptr %7, align 8, !tbaa !17
  %.not9 = icmp eq i32 %8, 0
  br i1 %.not9, label %14, label %9

9:                                                ; preds = %6
  %10 = getelementptr inbounds nuw i8, ptr %2, i64 16
  %11 = load i32, ptr %10, align 8, !tbaa !17
  %.not10 = icmp eq i32 %11, 0
  %12 = select i1 %.not10, ptr @BN_add, ptr @BN_sub
  %13 = tail call i32 %12(ptr noundef nonnull %0, ptr noundef nonnull %0, ptr noundef %2) #6, !callees !22
  br label %14

14:                                               ; preds = %6, %4, %9
  %.0 = phi i32 [ %13, %9 ], [ 0, %4 ], [ 1, %6 ]
  ret i32 %.0
}